target datalayout = "e-m:e-p270:32:32-p271:32:32-p272:64:64-i64:64-i128:128-f80:128-n8:16:32:64-S128"
target triple = "x86_64-pc-linux-gnu"

@.str.3 = private unnamed_addr constant [2 x i8] c"\0A\00", align 1
@.str.4 = private unnamed_addr constant [34 x i8] c"    fminit [options] <selection>\0A\00", align 1
@.str.5 = private unnamed_addr constant [82 x i8] c"This pass creates init constraints (for example for reset sequences) in a formal\0A\00", align 1
@.str.6 = private unnamed_addr constant [8 x i8] c"model.\0A\00", align 1
@.str.7 = private unnamed_addr constant [30 x i8] c"    -seq <signal> <sequence>\0A\00", align 1
@.str.8 = private unnamed_addr constant [71 x i8] c"        Set sequence using comma-separated list of values, use 'z for\0A\00", align 1
@.str.9 = private unnamed_addr constant [77 x i8] c"        unconstrained bits. The last value is used for the remainder of the\0A\00", align 1
@.str.10 = private unnamed_addr constant [16 x i8] c"        trace.\0A\00", align 1
@.str.11 = private unnamed_addr constant [27 x i8] c"    -set <signal> <value>\0A\00", align 1
@.str.12 = private unnamed_addr constant [39 x i8] c"        Add constant value constraint\0A\00", align 1
@.str.13 = private unnamed_addr constant [23 x i8] c"    -posedge <signal>\0A\00", align 1
@.str.14 = private unnamed_addr constant [23 x i8] c"    -negedge <signal>\0A\00", align 1
@.str.15 = private unnamed_addr constant [38 x i8] c"        Set clock for init sequences\0A\00", align 1

; Function Attrs: mustprogress uwtable
define internal void @_ZN12_GLOBAL__N_110FminitPass4helpEv(ptr noundef nonnull align 8 dereferenceable(104) %0) unnamed_addr #4 align 2 {
  %2 = alloca ptr, align 8
  store ptr %0, ptr %2, align 8
  call void (ptr, ...) @_ZN5Yosys3logEPKcz(ptr noundef @.str.3)
  call void (ptr, ...) @_ZN5Yosys3logEPKcz(ptr noundef @.str.4)
  call void (ptr, ...) @_ZN5Yosys3logEPKcz(ptr noundef @.str.3)
  call void (ptr, ...) @_ZN5Yosys3logEPKcz(ptr noundef @.str.5)
  call void (ptr, ...) @_ZN5Yosys3logEPKcz(ptr noundef @.str.6)
  call void (ptr, ...) @_ZN5Yosys3logEPKcz(ptr noundef @.str.3)
  call void (ptr, ...) @_ZN5Yosys3logEPKcz(ptr noundef @.str.7)
  call void (ptr, ...) @_ZN5Yosys3logEPKcz(ptr noundef @.str.8)
  call void (ptr, ...) @_ZN5Yosys3logEPKcz(ptr noundef @.str.9)
  call void (ptr, ...) @_ZN5Yosys3logEPKcz(ptr noundef @.str.10)
  call void (ptr, ...) @_ZN5Yosys3logEPKcz(ptr noundef @.str.3)
  call void (ptr, ...) @_ZN5Yosys3logEPKcz(ptr noundef @.str.11)
  call void (ptr, ...) @_ZN5Yosys3logEPKcz(ptr noundef @.str.12)
  call void (ptr, ...) @_ZN5Yosys3logEPKcz(ptr noundef @.str.3)
  call void (ptr, ...) @_ZN5Yosys3logEPKcz(ptr noundef @.str.13)
  call void (ptr, ...) @_ZN5Yosys3logEPKcz(ptr noundef @.str.14)
  call void (ptr, ...) @_ZN5Yosys3logEPKcz(ptr noundef @.str.15)
  call void (ptr, ...) @_ZN5Yosys3logEPKcz(ptr noundef @.str.3)
  ret void
}